; Function Attrs: mustprogress nounwind uwtable
define hidden void @_ZN2cv11WebPDecoderD2Ev(ptr noundef nonnull align 8 dereferenceable(1008) %0) unnamed_addr #4 align 2 personality ptr @__gxx_personality_v0 {
  %2 = getelementptr inbounds nuw i8, ptr %0, i64 992
  %3 = load ptr, ptr %2, align 8, !tbaa !81
  %.not.i = icmp eq ptr %3, null
  br i1 %.not.i, label %_ZNSt10unique_ptrI15WebPAnimDecoderN2cv11WebPDecoder16UniquePtrDeleterEED2Ev.exit, label %4

4:                                                ; preds = %1
  invoke void @WebPAnimDecoderDelete(ptr noundef nonnull %3)
          to label %_ZNSt10unique_ptrI15WebPAnimDecoderN2cv11WebPDecoder16UniquePtrDeleterEED2Ev.exit unwind label %5

5:                                                ; preds = %4
  %6 = landingpad { ptr, i32 }
          catch ptr null
  %7 = extractvalue { ptr, i32 } %6, 0
  tail call void @__clang_call_terminate(ptr %7) #23
  unreachable

_ZNSt10unique_ptrI15WebPAnimDecoderN2cv11WebPDecoder16UniquePtrDeleterEED2Ev.exit: ; preds = %1, %4
  store ptr null, ptr %2, align 8, !tbaa !81
  %8 = getelementptr inbounds nuw i8, ptr %0, i64 896
  tail call void @_ZN2cv3MatD1Ev(ptr noundef nonnull align 8 dereferenceable(96) %8) #21
  %9 = getelementptr inbounds nuw i8, ptr %0, i64 368
  %10 = load ptr, ptr @_ZTTSt14basic_ifstreamIcSt11char_traitsIcEE, align 8
  store ptr %10, ptr %9, align 8, !tbaa !3
  %11 = load ptr, ptr getelementptr inbounds nuw (i8, ptr @_ZTTSt14basic_ifstreamIcSt11char_traitsIcEE, i64 24), align 8
  %12 = getelementptr i8, ptr %10, i64 -24
  %13 = load i64, ptr %12, align 8
  %14 = getelementptr inbounds i8, ptr %9, i64 %13
  store ptr %11, ptr %14, align 8, !tbaa !3
  %15 = getelementptr inbounds nuw i8, ptr %0, i64 384
  tail call void @_ZNSt13basic_filebufIcSt11char_traitsIcEED2Ev(ptr noundef nonnull align 8 dereferenceable(240) %15) #21
  %16 = load ptr, ptr getelementptr inbounds nuw (i8, ptr @_ZTTSt14basic_ifstreamIcSt11char_traitsIcEE, i64 8), align 8
  store ptr %16, ptr %9, align 8, !tbaa !3
  %17 = load ptr, ptr getelementptr inbounds nuw (i8, ptr @_ZTTSt14basic_ifstreamIcSt11char_traitsIcEE, i64 16), align 8
  %18 = getelementptr i8, ptr %16, i64 -24
  %19 = load i64, ptr %18, align 8
  %20 = getelementptr inbounds i8, ptr %9, i64 %19
  store ptr %17, ptr %20, align 8, !tbaa !3
  %21 = getelementptr inbounds nuw i8, ptr %0, i64 376
  store i64 0, ptr %21, align 8, !tbaa !82
  %22 = getelementptr inbounds nuw i8, ptr %0, i64 624
  tail call void @_ZNSt8ios_baseD2Ev(ptr noundef nonnull align 8 dereferenceable(264) %22) #21
  tail call void @_ZN2cv16BaseImageDecoderD2Ev(ptr noundef nonnull align 8 dereferenceable(368) %0) #21
  ret void
}